; Function Attrs: nounwind uwtable
define hidden i32 @Curl_conn_setup(ptr noundef %0, ptr noundef %1, i32 noundef %2, ptr noundef %3, i32 noundef %4) local_unnamed_addr #0 {
  %6 = alloca ptr, align 8
  %7 = getelementptr inbounds nuw i8, ptr %1, i64 608
  %8 = sext i32 %2 to i64
  %9 = getelementptr inbounds [2 x ptr], ptr %7, i64 0, i64 %8
  %10 = load ptr, ptr %9, align 8, !tbaa !187
  %.not = icmp eq ptr %10, null
  br i1 %.not, label %11, label %cf_setup_add.exit

11:                                               ; preds = %5
  %12 = getelementptr inbounds nuw i8, ptr %1, i64 960
  %13 = load ptr, ptr %12, align 8, !tbaa !161
  %14 = getelementptr inbounds nuw i8, ptr %13, i64 148
  %15 = load i32, ptr %14, align 4, !tbaa !162
  %16 = icmp eq i32 %15, 2
  br i1 %16, label %17, label %.thread

17:                                               ; preds = %11
  %18 = tail call i32 @Curl_cf_https_setup(ptr noundef %0, ptr noundef nonnull %1, i32 noundef %2, ptr noundef %3) #10
  %.not18 = icmp eq i32 %18, 0
  br i1 %.not18, label %19, label %cf_setup_add.exit

19:                                               ; preds = %17
  %.pr.pre = load ptr, ptr %9, align 8, !tbaa !187
  %20 = icmp eq ptr %.pr.pre, null
  br i1 %20, label %.thread, label %cf_setup_add.exit

.thread:                                          ; preds = %11, %19
  %21 = getelementptr inbounds nuw i8, ptr %1, i64 1410
  %22 = load i8, ptr %21, align 2, !tbaa !192
  call void @llvm.lifetime.start.p0(i64 8, ptr nonnull %6) #10
  store ptr null, ptr %6, align 8, !tbaa !187
  %23 = load ptr, ptr @Curl_ccalloc, align 8, !tbaa !120
  %24 = tail call ptr %23(i64 noundef 1, i64 noundef 24) #10
  %.not.i.i = icmp eq ptr %24, null
  br i1 %.not.i.i, label %cf_setup_create.exit.thread.i, label %cf_setup_create.exit.i

cf_setup_create.exit.thread.i:                    ; preds = %.thread
  %25 = load ptr, ptr @Curl_cfree, align 8, !tbaa !120
  tail call void %25(ptr noundef null) #10
  call void @llvm.lifetime.end.p0(i64 8, ptr nonnull %6) #10
  br label %cf_setup_add.exit

cf_setup_create.exit.i:                           ; preds = %.thread
  %26 = zext i8 %22 to i32
  store i32 0, ptr %24, align 8, !tbaa !179
  %27 = getelementptr inbounds nuw i8, ptr %24, i64 8
  store ptr %3, ptr %27, align 8, !tbaa !181
  %28 = getelementptr inbounds nuw i8, ptr %24, i64 16
  store i32 %4, ptr %28, align 8, !tbaa !190
  %29 = getelementptr inbounds nuw i8, ptr %24, i64 20
  store i32 %26, ptr %29, align 4, !tbaa !182
  %30 = call i32 @Curl_cf_create(ptr noundef nonnull %6, ptr noundef nonnull @Curl_cft_setup, ptr noundef nonnull %24) #10
  %.fr.i.i = freeze i32 %30
  %.not17.i.i = icmp eq i32 %.fr.i.i, 0
  %spec.select.i.i = select i1 %.not17.i.i, ptr null, ptr %24
  %31 = load ptr, ptr %6, align 8
  %32 = load ptr, ptr @Curl_cfree, align 8, !tbaa !120
  call void %32(ptr noundef %spec.select.i.i) #10
  call void @llvm.lifetime.end.p0(i64 8, ptr nonnull %6) #10
  br i1 %.not17.i.i, label %33, label %cf_setup_add.exit

33:                                               ; preds = %cf_setup_create.exit.i
  call void @Curl_conn_cf_add(ptr noundef %0, ptr noundef nonnull %1, i32 noundef %2, ptr noundef %31) #10
  br label %cf_setup_add.exit

cf_setup_add.exit:                                ; preds = %5, %33, %cf_setup_create.exit.i, %cf_setup_create.exit.thread.i, %19, %17
  %.1 = phi i32 [ 0, %19 ], [ %18, %17 ], [ 27, %cf_setup_create.exit.thread.i ], [ %.fr.i.i, %cf_setup_create.exit.i ], [ 0, %33 ], [ 0, %5 ]
  ret i32 %.1
}